target datalayout = "e-m:e-p270:32:32-p271:32:32-p272:64:64-i64:64-i128:128-f80:128-n8:16:32:64-S128"
target triple = "x86_64-pc-linux-gnu"

%"class.std::__cxx11::basic_string" = type { %"struct.std::__cxx11::basic_string<char>::_Alloc_hider", i64, %union.anon }
%"struct.std::__cxx11::basic_string<char>::_Alloc_hider" = type { ptr }
%union.anon = type { i64, [8 x i8] }
%"struct.faiss::HeapArray" = type { i64, i64, ptr, ptr }

@.str.2 = private unnamed_addr constant [115 x i8] c"generated/home/dtcxzyw/WorkSpace/Projects/compilers/llvm-opt-benchmark/bench/faiss/faiss/faiss/utils/distances.cpp\00", align 1
@.str.7 = private unnamed_addr constant [19 x i8] c"Error: '%s' failed\00", align 1
@.str.8 = private unnamed_addr constant [14 x i8] c"nx == res->nh\00", align 1
@__PRETTY_FUNCTION__._ZN5faiss17knn_inner_productEPKfS1_mmmPNS_9HeapArrayINS_4CMinIflEEEEPKNS_10IDSelectorE = private unnamed_addr constant [129 x i8] c"void faiss::knn_inner_product(const float *, const float *, size_t, size_t, size_t, float_minheap_array_t *, const IDSelector *)\00", align 1
@_ZTIN5faiss14FaissExceptionE = external constant ptr

; Function Attrs: mustprogress uwtable
define void @_ZN5faiss17knn_inner_productEPKfS1_mmmPNS_9HeapArrayINS_4CMinIflEEEEPKNS_10IDSelectorE(ptr noundef %0, ptr noundef %1, i64 noundef %2, i64 noundef %3, i64 noundef %4, ptr noundef %5, ptr noundef %6) #6 personality ptr @__gxx_personality_v0 {
  %8 = alloca ptr, align 8
  %9 = alloca ptr, align 8
  %10 = alloca i64, align 8
  %11 = alloca i64, align 8
  %12 = alloca i64, align 8
  %13 = alloca ptr, align 8
  %14 = alloca ptr, align 8
  %15 = alloca %"class.std::__cxx11::basic_string", align 8
  %16 = alloca i32, align 4
  %17 = alloca ptr, align 8
  %18 = alloca i32, align 4
  store ptr %0, ptr %8, align 8
  store ptr %1, ptr %9, align 8
  store i64 %2, ptr %10, align 8
  store i64 %3, ptr %11, align 8
  store i64 %4, ptr %12, align 8
  store ptr %5, ptr %13, align 8
  store ptr %6, ptr %14, align 8
  br label %19

19:                                               ; preds = %7
  %20 = load i64, ptr %11, align 8
  %21 = load ptr, ptr %13, align 8
  %22 = getelementptr inbounds %"struct.faiss::HeapArray", ptr %21, i32 0, i32 0
  %23 = load i64, ptr %22, align 8
  %24 = icmp eq i64 %20, %23
  br i1 %24, label %48, label %25

25:                                               ; preds = %19
  br label %26

26:                                               ; preds = %25
  call void @_ZNSt7__cxx1112basic_stringIcSt11char_traitsIcESaIcEEC1Ev(ptr noundef nonnull align 8 dereferenceable(32) %15) #2
  %27 = call i32 (ptr, i64, ptr, ...) @snprintf(ptr noundef null, i64 noundef 0, ptr noundef @.str.7, ptr noundef @.str.8) #2
  store i32 %27, ptr %16, align 4
  %28 = load i32, ptr %16, align 4
  %29 = add nsw i32 %28, 1
  %30 = sext i32 %29 to i64
  invoke void @_ZNSt7__cxx1112basic_stringIcSt11char_traitsIcESaIcEE6resizeEm(ptr noundef nonnull align 8 dereferenceable(32) %15, i64 noundef %30)
          to label %31 unwind label %38

31:                                               ; preds = %26
  %32 = invoke noundef nonnull align 1 dereferenceable(1) ptr @_ZNSt7__cxx1112basic_stringIcSt11char_traitsIcESaIcEEixEm(ptr noundef nonnull align 8 dereferenceable(32) %15, i64 noundef 0)
          to label %33 unwind label %38

33:                                               ; preds = %31
  %34 = call noundef i64 @_ZNKSt7__cxx1112basic_stringIcSt11char_traitsIcESaIcEE4sizeEv(ptr noundef nonnull align 8 dereferenceable(32) %15) #2
  %35 = call i32 (ptr, i64, ptr, ...) @snprintf(ptr noundef %32, i64 noundef %34, ptr noundef @.str.7, ptr noundef @.str.8) #2
  %36 = call ptr @__cxa_allocate_exception(i64 40) #2
  invoke void @_ZN5faiss14FaissExceptionC1ERKNSt7__cxx1112basic_stringIcSt11char_traitsIcESaIcEEEPKcSA_i(ptr noundef nonnull align 8 dereferenceable(40) %36, ptr noundef nonnull align 8 dereferenceable(32) %15, ptr noundef @__PRETTY_FUNCTION__._ZN5faiss17knn_inner_productEPKfS1_mmmPNS_9HeapArrayINS_4CMinIflEEEEPKNS_10IDSelectorE, ptr noundef @.str.2, i32 noundef 706)
          to label %37 unwind label %42

37:                                               ; preds = %33
  invoke void @__cxa_throw(ptr %36, ptr @_ZTIN5faiss14FaissExceptionE, ptr @_ZN5faiss14FaissExceptionD2Ev) #20
          to label %70 unwind label %38

38:                                               ; preds = %37, %31, %26
  %39 = landingpad { ptr, i32 }
          cleanup
  %40 = extractvalue { ptr, i32 } %39, 0
  store ptr %40, ptr %17, align 8
  %41 = extractvalue { ptr, i32 } %39, 1
  store i32 %41, ptr %18, align 4
  br label %46

42:                                               ; preds = %33
  %43 = landingpad { ptr, i32 }
          cleanup
  %44 = extractvalue { ptr, i32 } %43, 0
  store ptr %44, ptr %17, align 8
  %45 = extractvalue { ptr, i32 } %43, 1
  store i32 %45, ptr %18, align 4
  call void @__cxa_free_exception(ptr %36) #2
  br label %46

46:                                               ; preds = %42, %38
  call void @_ZNSt7__cxx1112basic_stringIcSt11char_traitsIcESaIcEED1Ev(ptr noundef nonnull align 8 dereferenceable(32) %15) #2
  br label %65

47:                                               ; No predecessors!
  br label %48

48:                                               ; preds = %47, %19
  br label %49

49:                                               ; preds = %48
  %50 = load ptr, ptr %8, align 8
  %51 = load ptr, ptr %9, align 8
  %52 = load i64, ptr %10, align 8
  %53 = load i64, ptr %11, align 8
  %54 = load i64, ptr %12, align 8
  %55 = load ptr, ptr %13, align 8
  %56 = getelementptr inbounds %"struct.faiss::HeapArray", ptr %55, i32 0, i32 1
  %57 = load i64, ptr %56, align 8
  %58 = load ptr, ptr %13, align 8
  %59 = getelementptr inbounds %"struct.faiss::HeapArray", ptr %58, i32 0, i32 3
  %60 = load ptr, ptr %59, align 8
  %61 = load ptr, ptr %13, align 8
  %62 = getelementptr inbounds %"struct.faiss::HeapArray", ptr %61, i32 0, i32 2
  %63 = load ptr, ptr %62, align 8
  %64 = load ptr, ptr %14, align 8
  call void @_ZN5faiss17knn_inner_productEPKfS1_mmmmPfPlPKNS_10IDSelectorE(ptr noundef %50, ptr noundef %51, i64 noundef %52, i64 noundef %53, i64 noundef %54, i64 noundef %57, ptr noundef %60, ptr noundef %63, ptr noundef %64)
  ret void

65:                                               ; preds = %46
  %66 = load ptr, ptr %17, align 8
  %67 = load i32, ptr %18, align 4
  %68 = insertvalue { ptr, i32 } poison, ptr %66, 0
  %69 = insertvalue { ptr, i32 } %68, i32 %67, 1
  resume { ptr, i32 } %69

70:                                               ; preds = %37
  unreachable
}