; Function Attrs: mustprogress uwtable
define void @_ZN5faiss17knn_inner_productEPKfS1_mmmPNS_9HeapArrayINS_4CMinIflEEEEPKNS_10IDSelectorE(ptr noundef %0, ptr noundef %1, i64 noundef %2, i64 noundef %3, i64 noundef %4, ptr nocapture noundef readonly %5, ptr noundef %6) local_unnamed_addr #6 personality ptr @__gxx_personality_v0 {
  %8 = alloca %"class.std::__cxx11::basic_string", align 8
  %9 = load i64, ptr %5, align 8
  %10 = icmp eq i64 %9, %3
  br i1 %10, label %27, label %11

11:                                               ; preds = %7
  call void @_ZNSt7__cxx1112basic_stringIcSt11char_traitsIcESaIcEEC1Ev(ptr noundef nonnull align 8 dereferenceable(32) %8) #2
  %12 = call i32 (ptr, i64, ptr, ...) @snprintf(ptr noundef null, i64 noundef 0, ptr noundef nonnull @.str.7, ptr noundef nonnull @.str.8) #2
  %13 = add nsw i32 %12, 1
  %14 = sext i32 %13 to i64
  invoke void @_ZNSt7__cxx1112basic_stringIcSt11char_traitsIcESaIcEE6resizeEm(ptr noundef nonnull align 8 dereferenceable(32) %8, i64 noundef %14)
          to label %15 unwind label %22

15:                                               ; preds = %11
  %16 = invoke noundef nonnull align 1 dereferenceable(1) ptr @_ZNSt7__cxx1112basic_stringIcSt11char_traitsIcESaIcEEixEm(ptr noundef nonnull align 8 dereferenceable(32) %8, i64 noundef 0)
          to label %17 unwind label %22

17:                                               ; preds = %15
  %18 = call noundef i64 @_ZNKSt7__cxx1112basic_stringIcSt11char_traitsIcESaIcEE4sizeEv(ptr noundef nonnull align 8 dereferenceable(32) %8) #2
  %19 = call i32 (ptr, i64, ptr, ...) @snprintf(ptr noundef nonnull %16, i64 noundef %18, ptr noundef nonnull @.str.7, ptr noundef nonnull @.str.8) #2
  %20 = call ptr @__cxa_allocate_exception(i64 40) #2
  invoke void @_ZN5faiss14FaissExceptionC1ERKNSt7__cxx1112basic_stringIcSt11char_traitsIcESaIcEEEPKcSA_i(ptr noundef nonnull align 8 dereferenceable(40) %20, ptr noundef nonnull align 8 dereferenceable(32) %8, ptr noundef nonnull @__PRETTY_FUNCTION__._ZN5faiss17knn_inner_productEPKfS1_mmmPNS_9HeapArrayINS_4CMinIflEEEEPKNS_10IDSelectorE, ptr noundef nonnull @.str.2, i32 noundef 706)
          to label %21 unwind label %24

21:                                               ; preds = %17
  invoke void @__cxa_throw(ptr nonnull %20, ptr nonnull @_ZTIN5faiss14FaissExceptionE, ptr nonnull @_ZN5faiss14FaissExceptionD2Ev) #25
          to label %34 unwind label %22

22:                                               ; preds = %21, %15, %11
  %23 = landingpad { ptr, i32 }
          cleanup
  br label %26

24:                                               ; preds = %17
  %25 = landingpad { ptr, i32 }
          cleanup
  call void @__cxa_free_exception(ptr %20) #2
  br label %26

26:                                               ; preds = %24, %22
  %.pn = phi { ptr, i32 } [ %23, %22 ], [ %25, %24 ]
  call void @_ZNSt7__cxx1112basic_stringIcSt11char_traitsIcESaIcEED1Ev(ptr noundef nonnull align 8 dereferenceable(32) %8) #2
  resume { ptr, i32 } %.pn

27:                                               ; preds = %7
  %28 = getelementptr inbounds i8, ptr %5, i64 8
  %29 = load i64, ptr %28, align 8
  %30 = getelementptr inbounds i8, ptr %5, i64 24
  %31 = load ptr, ptr %30, align 8
  %32 = getelementptr inbounds i8, ptr %5, i64 16
  %33 = load ptr, ptr %32, align 8
  tail call void @_ZN5faiss17knn_inner_productEPKfS1_mmmmPfPlPKNS_10IDSelectorE(ptr noundef %0, ptr noundef %1, i64 noundef %2, i64 noundef %3, i64 noundef %4, i64 noundef %29, ptr noundef %31, ptr noundef %33, ptr noundef %6)
  ret void

34:                                               ; preds = %21
  unreachable
}